target datalayout = "e-m:e-p270:32:32-p271:32:32-p272:64:64-i64:64-i128:128-f80:128-n8:16:32:64-S128"
target triple = "x86_64-pc-linux-gnu"

%"class.Luau::AstNode.base" = type <{ ptr, i32, %"struct.Luau::Location" }>
%"struct.Luau::Location" = type { %"struct.Luau::Position", %"struct.Luau::Position" }
%"struct.Luau::Position" = type { i32, i32 }
%"struct.Luau::AstTypeList" = type { %"struct.Luau::AstArray.26", ptr }
%"struct.Luau::AstArray.26" = type { ptr, i64 }
%"class.Luau::AstTypePackExplicit" = type { %"class.Luau::AstTypePack.base", %"struct.Luau::AstTypeList" }
%"class.Luau::AstTypePack.base" = type { %"class.Luau::AstNode.base" }

; Function Attrs: mustprogress nounwind uwtable
define linkonce_odr dso_local noundef ptr @_ZNK4Luau8AstArrayIPNS_7AstTypeEE3endEv(ptr noundef nonnull align 8 dereferenceable(16) %0) #4 comdat align 2 {
  %2 = alloca ptr, align 8
  store ptr %0, ptr %2, align 8, !tbaa !481
  %3 = load ptr, ptr %2, align 8
  %4 = getelementptr inbounds nuw %"struct.Luau::AstArray.26", ptr %3, i32 0, i32 0
  %5 = load ptr, ptr %4, align 8, !tbaa !613
  %6 = getelementptr inbounds nuw %"struct.Luau::AstArray.26", ptr %3, i32 0, i32 1
  %7 = load i64, ptr %6, align 8, !tbaa !614
  %8 = getelementptr inbounds nuw ptr, ptr %5, i64 %7
  ret ptr %8
}

; Function Attrs: mustprogress nounwind uwtable
define linkonce_odr dso_local noundef ptr @_ZNK4Luau8AstArrayIPNS_7AstTypeEE5beginEv(ptr noundef nonnull align 8 dereferenceable(16) %0) #4 comdat align 2 {
  %2 = alloca ptr, align 8
  store ptr %0, ptr %2, align 8, !tbaa !481
  %3 = load ptr, ptr %2, align 8
  %4 = getelementptr inbounds nuw %"struct.Luau::AstArray.26", ptr %3, i32 0, i32 0
  %5 = load ptr, ptr %4, align 8, !tbaa !613
  ret ptr %5
}

; Function Attrs: mustprogress uwtable
define dso_local void @_ZN4Luau20DataFlowGraphBuilder13visitTypeListENS_11AstTypeListE(ptr noundef nonnull align 8 dereferenceable(336) %0, ptr noundef byval(%"struct.Luau::AstTypeList") align 8 %1) #2 align 2 {
  %3 = alloca ptr, align 8
  %4 = alloca ptr, align 8
  %5 = alloca ptr, align 8
  %6 = alloca ptr, align 8
  %7 = alloca ptr, align 8
  store ptr %0, ptr %3, align 8, !tbaa !154
  %8 = load ptr, ptr %3, align 8
  call void @llvm.lifetime.start.p0(i64 8, ptr %4) #17
  %9 = getelementptr inbounds nuw %"struct.Luau::AstTypeList", ptr %1, i32 0, i32 0
  store ptr %9, ptr %4, align 8, !tbaa !481
  call void @llvm.lifetime.start.p0(i64 8, ptr %5) #17
  %10 = load ptr, ptr %4, align 8, !tbaa !481
  %11 = call noundef ptr @_ZNK4Luau8AstArrayIPNS_7AstTypeEE5beginEv(ptr noundef nonnull align 8 dereferenceable(16) %10)
  store ptr %11, ptr %5, align 8, !tbaa !410
  call void @llvm.lifetime.start.p0(i64 8, ptr %6) #17
  %12 = load ptr, ptr %4, align 8, !tbaa !481
  %13 = call noundef ptr @_ZNK4Luau8AstArrayIPNS_7AstTypeEE3endEv(ptr noundef nonnull align 8 dereferenceable(16) %12)
  store ptr %13, ptr %6, align 8, !tbaa !410
  br label %14

14:                                               ; preds = %23, %2
  %15 = load ptr, ptr %5, align 8, !tbaa !410
  %16 = load ptr, ptr %6, align 8, !tbaa !410
  %17 = icmp ne ptr %15, %16
  br i1 %17, label %19, label %18

18:                                               ; preds = %14
  call void @llvm.lifetime.end.p0(i64 8, ptr %6) #17
  call void @llvm.lifetime.end.p0(i64 8, ptr %5) #17
  call void @llvm.lifetime.end.p0(i64 8, ptr %4) #17
  br label %26

19:                                               ; preds = %14
  call void @llvm.lifetime.start.p0(i64 8, ptr %7) #17
  %20 = load ptr, ptr %5, align 8, !tbaa !410
  %21 = load ptr, ptr %20, align 8, !tbaa !419
  store ptr %21, ptr %7, align 8, !tbaa !419
  %22 = load ptr, ptr %7, align 8, !tbaa !419
  call void @_ZN4Luau20DataFlowGraphBuilder9visitTypeEPNS_7AstTypeE(ptr noundef nonnull align 8 dereferenceable(336) %8, ptr noundef %22)
  call void @llvm.lifetime.end.p0(i64 8, ptr %7) #17
  br label %23

23:                                               ; preds = %19
  %24 = load ptr, ptr %5, align 8, !tbaa !410
  %25 = getelementptr inbounds nuw ptr, ptr %24, i32 1
  store ptr %25, ptr %5, align 8, !tbaa !410
  br label %14

26:                                               ; preds = %18
  %27 = getelementptr inbounds nuw %"struct.Luau::AstTypeList", ptr %1, i32 0, i32 1
  %28 = load ptr, ptr %27, align 8, !tbaa !483
  %29 = icmp ne ptr %28, null
  br i1 %29, label %30, label %33

30:                                               ; preds = %26
  %31 = getelementptr inbounds nuw %"struct.Luau::AstTypeList", ptr %1, i32 0, i32 1
  %32 = load ptr, ptr %31, align 8, !tbaa !483
  call void @_ZN4Luau20DataFlowGraphBuilder13visitTypePackEPNS_11AstTypePackE(ptr noundef nonnull align 8 dereferenceable(336) %8, ptr noundef %32)
  br label %33

33:                                               ; preds = %30, %26
  ret void
}

; Function Attrs: mustprogress uwtable
define dso_local void @_ZN4Luau20DataFlowGraphBuilder13visitTypePackEPNS_19AstTypePackExplicitE(ptr noundef nonnull align 8 dereferenceable(336) %0, ptr noundef %1) #2 align 2 {
  %3 = alloca ptr, align 8
  %4 = alloca ptr, align 8
  %5 = alloca %"struct.Luau::AstTypeList", align 8
  store ptr %0, ptr %3, align 8, !tbaa !154
  store ptr %1, ptr %4, align 8, !tbaa !542
  %6 = load ptr, ptr %3, align 8
  %7 = load ptr, ptr %4, align 8, !tbaa !542
  %8 = getelementptr inbounds nuw %"class.Luau::AstTypePackExplicit", ptr %7, i32 0, i32 1
  call void @llvm.memcpy.p0.p0.i64(ptr align 8 %5, ptr align 8 %8, i64 24, i1 false), !tbaa.struct !409
  call void @_ZN4Luau20DataFlowGraphBuilder13visitTypeListENS_11AstTypeListE(ptr noundef nonnull align 8 dereferenceable(336) %6, ptr noundef byval(%"struct.Luau::AstTypeList") align 8 %5)
  ret void
}