; Function Attrs: mustprogress uwtable
define dso_local void @_ZN4Luau20DataFlowGraphBuilder13visitTypePackEPNS_19AstTypePackExplicitE(ptr noundef nonnull align 8 dereferenceable(336) %0, ptr noundef readonly captures(none) %1) local_unnamed_addr #2 align 2 {
  %3 = getelementptr inbounds nuw i8, ptr %1, i64 32
  %.sroa.02.0.copyload = load ptr, ptr %3, align 8, !tbaa !378
  %.sroa.2.0..sroa_idx = getelementptr inbounds nuw i8, ptr %1, i64 40
  %.sroa.2.0.copyload = load i64, ptr %.sroa.2.0..sroa_idx, align 8, !tbaa !42
  %.sroa.3.0..sroa_idx = getelementptr inbounds nuw i8, ptr %1, i64 48
  %.sroa.3.0.copyload = load ptr, ptr %.sroa.3.0..sroa_idx, align 8, !tbaa !380
  %4 = getelementptr inbounds nuw ptr, ptr %.sroa.02.0.copyload, i64 %.sroa.2.0.copyload
  %.not10.i = icmp eq i64 %.sroa.2.0.copyload, 0
  br i1 %.not10.i, label %._crit_edge.i, label %.lr.ph.i

._crit_edge.i:                                    ; preds = %.lr.ph.i, %2
  %.not9.i = icmp eq ptr %.sroa.3.0.copyload, null
  br i1 %.not9.i, label %_ZN4Luau20DataFlowGraphBuilder13visitTypeListENS_11AstTypeListE.exit, label %7

.lr.ph.i:                                         ; preds = %2, %.lr.ph.i
  %.011.i = phi ptr [ %6, %.lr.ph.i ], [ %.sroa.02.0.copyload, %2 ]
  %5 = load ptr, ptr %.011.i, align 8, !tbaa !381
  tail call void @_ZN4Luau20DataFlowGraphBuilder9visitTypeEPNS_7AstTypeE(ptr noundef nonnull align 8 dereferenceable(336) %0, ptr noundef %5)
  %6 = getelementptr inbounds nuw i8, ptr %.011.i, i64 8
  %.not.i = icmp eq ptr %6, %4
  br i1 %.not.i, label %._crit_edge.i, label %.lr.ph.i

7:                                                ; preds = %._crit_edge.i
  tail call void @_ZN4Luau20DataFlowGraphBuilder13visitTypePackEPNS_11AstTypePackE(ptr noundef nonnull align 8 dereferenceable(336) %0, ptr noundef nonnull %.sroa.3.0.copyload)
  br label %_ZN4Luau20DataFlowGraphBuilder13visitTypeListENS_11AstTypeListE.exit

_ZN4Luau20DataFlowGraphBuilder13visitTypeListENS_11AstTypeListE.exit: ; preds = %._crit_edge.i, %7
  ret void
}